; Function Attrs: mustprogress uwtable
define noundef float @_ZNK7Imf_3_213RgbaInputFile17screenWindowWidthEv(ptr nocapture noundef nonnull readonly align 8 dereferenceable(64) %this) local_unnamed_addr #3 align 2 {
entry:
  %_inputPart = getelementptr inbounds i8, ptr %this, i64 16
  %0 = load ptr, ptr %_inputPart, align 8
  %call = tail call noundef nonnull align 8 dereferenceable(49) ptr @_ZNK7Imf_3_29InputPart6headerEv(ptr noundef nonnull align 8 dereferenceable(8) %0)
  %call2 = tail call noundef nonnull align 4 dereferenceable(4) ptr @_ZNK7Imf_3_26Header17screenWindowWidthEv(ptr noundef nonnull align 8 dereferenceable(49) %call)
  %1 = load float, ptr %call2, align 4
  ret float %1
}